; ModuleID = '7/423.c'
source_filename = "7/423.c"
target datalayout = "e-m:e-p270:32:32-p271:32:32-p272:64:64-i64:64-f80:128-n8:16:32:64-S128"
target triple = "x86_64-pc-linux-gnu"

@.str = private unnamed_addr constant [3 x i8] c"%s\00", align 1
@.str.1 = private unnamed_addr constant [3 x i8] c"%c\00", align 1

; Function Attrs: noinline nounwind uwtable
define dso_local i32 @main() #0 {
  %1 = alloca i32, align 4
  %2 = alloca [257 x i8], align 16
  %3 = alloca [257 x i8], align 16
  %4 = alloca [257 x i8], align 16
  %5 = alloca [257 x i8], align 16
  %6 = alloca i32, align 4
  %7 = alloca i32, align 4
  %8 = alloca i32, align 4
  %9 = alloca i32, align 4
  %10 = alloca i32, align 4
  %11 = alloca i32, align 4
  %12 = alloca i32, align 4
  store i32 0, i32* %1, align 4
  %13 = bitcast [257 x i8]* %2 to i8*
  call void @llvm.memset.p0i8.i64(i8* align 16 %13, i8 0, i64 257, i1 false)
  %14 = bitcast [257 x i8]* %3 to i8*
  call void @llvm.memset.p0i8.i64(i8* align 16 %14, i8 0, i64 257, i1 false)
  %15 = bitcast [257 x i8]* %4 to i8*
  call void @llvm.memset.p0i8.i64(i8* align 16 %15, i8 0, i64 257, i1 false)
  %16 = bitcast [257 x i8]* %5 to i8*
  call void @llvm.memset.p0i8.i64(i8* align 16 %16, i8 0, i64 257, i1 false)
  store i32 0, i32* %12, align 4
  %17 = getelementptr inbounds [257 x i8], [257 x i8]* %2, i64 0, i64 0
  %18 = call i32 (i8*, ...) @__isoc99_scanf(i8* getelementptr inbounds ([3 x i8], [3 x i8]* @.str, i64 0, i64 0), i8* %17)
  %19 = getelementptr inbounds [257 x i8], [257 x i8]* %3, i64 0, i64 0
  %20 = call i32 (i8*, ...) @__isoc99_scanf(i8* getelementptr inbounds ([3 x i8], [3 x i8]* @.str, i64 0, i64 0), i8* %19)
  %21 = getelementptr inbounds [257 x i8], [257 x i8]* %4, i64 0, i64 0
  %22 = call i32 (i8*, ...) @__isoc99_scanf(i8* getelementptr inbounds ([3 x i8], [3 x i8]* @.str, i64 0, i64 0), i8* %21)
  %23 = getelementptr inbounds [257 x i8], [257 x i8]* %2, i64 0, i64 0
  %24 = call i64 @strlen(i8* %23) #4
  %25 = trunc i64 %24 to i32
  store i32 %25, i32* %6, align 4
  %26 = getelementptr inbounds [257 x i8], [257 x i8]* %3, i64 0, i64 0
  %27 = call i64 @strlen(i8* %26) #4
  %28 = trunc i64 %27 to i32
  store i32 %28, i32* %7, align 4
  store i32 0, i32* %8, align 4
  br label %29

29:                                               ; preds = %98, %0
  %30 = load i32, i32* %8, align 4
  %31 = load i32, i32* %6, align 4
  %32 = load i32, i32* %7, align 4
  %33 = sub nsw i32 %31, %32
  %34 = icmp sle i32 %30, %33
  br i1 %34, label %35, label %101

35:                                               ; preds = %29
  store i32 0, i32* %9, align 4
  br label %36

36:                                               ; preds = %50, %35
  %37 = load i32, i32* %9, align 4
  %38 = load i32, i32* %7, align 4
  %39 = icmp slt i32 %37, %38
  br i1 %39, label %40, label %53

40:                                               ; preds = %36
  %41 = load i32, i32* %9, align 4
  %42 = load i32, i32* %8, align 4
  %43 = add nsw i32 %41, %42
  %44 = sext i32 %43 to i64
  %45 = getelementptr inbounds [257 x i8], [257 x i8]* %2, i64 0, i64 %44
  %46 = load i8, i8* %45, align 1
  %47 = load i32, i32* %9, align 4
  %48 = sext i32 %47 to i64
  %49 = getelementptr inbounds [257 x i8], [257 x i8]* %5, i64 0, i64 %48
  store i8 %46, i8* %49, align 1
  br label %50

50:                                               ; preds = %40
  %51 = load i32, i32* %9, align 4
  %52 = add nsw i32 %51, 1
  store i32 %52, i32* %9, align 4
  br label %36

53:                                               ; preds = %36
  %54 = getelementptr inbounds [257 x i8], [257 x i8]* %5, i64 0, i64 0
  %55 = getelementptr inbounds [257 x i8], [257 x i8]* %3, i64 0, i64 0
  %56 = call i32 @strcmp(i8* %54, i8* %55) #4
  %57 = icmp eq i32 %56, 0
  br i1 %57, label %58, label %97

58:                                               ; preds = %53
  store i32 0, i32* %10, align 4
  br label %59

59:                                               ; preds = %70, %58
  %60 = load i32, i32* %10, align 4
  %61 = load i32, i32* %8, align 4
  %62 = icmp slt i32 %60, %61
  br i1 %62, label %63, label %73

63:                                               ; preds = %59
  %64 = load i32, i32* %10, align 4
  %65 = sext i32 %64 to i64
  %66 = getelementptr inbounds [257 x i8], [257 x i8]* %2, i64 0, i64 %65
  %67 = load i8, i8* %66, align 1
  %68 = sext i8 %67 to i32
  %69 = call i32 (i8*, ...) @printf(i8* getelementptr inbounds ([3 x i8], [3 x i8]* @.str.1, i64 0, i64 0), i32 %68)
  br label %70

70:                                               ; preds = %63
  %71 = load i32, i32* %10, align 4
  %72 = add nsw i32 %71, 1
  store i32 %72, i32* %10, align 4
  br label %59

73:                                               ; preds = %59
  %74 = getelementptr inbounds [257 x i8], [257 x i8]* %4, i64 0, i64 0
  %75 = call i32 (i8*, ...) @printf(i8* getelementptr inbounds ([3 x i8], [3 x i8]* @.str, i64 0, i64 0), i8* %74)
  %76 = load i32, i32* %8, align 4
  %77 = load i32, i32* %7, align 4
  %78 = add nsw i32 %76, %77
  store i32 %78, i32* %11, align 4
  br label %79

79:                                               ; preds = %93, %73
  %80 = load i32, i32* %11, align 4
  %81 = sext i32 %80 to i64
  %82 = getelementptr inbounds [257 x i8], [257 x i8]* %2, i64 0, i64 %81
  %83 = load i8, i8* %82, align 1
  %84 = sext i8 %83 to i32
  %85 = icmp ne i32 %84, 0
  br i1 %85, label %86, label %96

86:                                               ; preds = %79
  %87 = load i32, i32* %11, align 4
  %88 = sext i32 %87 to i64
  %89 = getelementptr inbounds [257 x i8], [257 x i8]* %2, i64 0, i64 %88
  %90 = load i8, i8* %89, align 1
  %91 = sext i8 %90 to i32
  %92 = call i32 (i8*, ...) @printf(i8* getelementptr inbounds ([3 x i8], [3 x i8]* @.str.1, i64 0, i64 0), i32 %91)
  br label %93

93:                                               ; preds = %86
  %94 = load i32, i32* %11, align 4
  %95 = add nsw i32 %94, 1
  store i32 %95, i32* %11, align 4
  br label %79

96:                                               ; preds = %79
  store i32 1, i32* %12, align 4
  br label %101

97:                                               ; preds = %53
  br label %98

98:                                               ; preds = %97
  %99 = load i32, i32* %8, align 4
  %100 = add nsw i32 %99, 1
  store i32 %100, i32* %8, align 4
  br label %29

101:                                              ; preds = %96, %29
  %102 = load i32, i32* %12, align 4
  %103 = icmp eq i32 %102, 0
  br i1 %103, label %104, label %107

104:                                              ; preds = %101
  %105 = getelementptr inbounds [257 x i8], [257 x i8]* %2, i64 0, i64 0
  %106 = call i32 (i8*, ...) @printf(i8* getelementptr inbounds ([3 x i8], [3 x i8]* @.str, i64 0, i64 0), i8* %105)
  br label %107

107:                                              ; preds = %104, %101
  ret i32 0
}

; Function Attrs: argmemonly nounwind willreturn
declare void @llvm.memset.p0i8.i64(i8* nocapture writeonly, i8, i64, i1 immarg) #1

declare dso_local i32 @__isoc99_scanf(i8*, ...) #2

; Function Attrs: nounwind readonly
declare dso_local i64 @strlen(i8*) #3

; Function Attrs: nounwind readonly
declare dso_local i32 @strcmp(i8*, i8*) #3

declare dso_local i32 @printf(i8*, ...) #2


!llvm.module.flags = !{!0}
!llvm.ident = !{!1}

!0 = !{i32 1, !"wchar_size", i32 4}
!1 = !{!"clang version 10.0.0-4ubuntu1 "}
